target datalayout = "e-m:e-p270:32:32-p271:32:32-p272:64:64-i64:64-i128:128-f80:128-n8:16:32:64-S128"
target triple = "x86_64-pc-linux-gnu"

%struct.GetBitContext = type { ptr, ptr, i32, i32, i32 }

; Function Attrs: alwaysinline nounwind willreturn memory(none) uwtable
define internal i32 @av_bswap32(i32 noundef %0) #5 {
  %2 = alloca i32, align 4
  store i32 %0, ptr %2, align 4, !tbaa !13
  %3 = load i32, ptr %2, align 4, !tbaa !13
  %4 = shl i32 %3, 8
  %5 = and i32 %4, 65280
  %6 = load i32, ptr %2, align 4, !tbaa !13
  %7 = lshr i32 %6, 8
  %8 = and i32 %7, 255
  %9 = or i32 %5, %8
  %10 = shl i32 %9, 16
  %11 = load i32, ptr %2, align 4, !tbaa !13
  %12 = lshr i32 %11, 16
  %13 = shl i32 %12, 8
  %14 = and i32 %13, 65280
  %15 = load i32, ptr %2, align 4, !tbaa !13
  %16 = lshr i32 %15, 16
  %17 = lshr i32 %16, 8
  %18 = and i32 %17, 255
  %19 = or i32 %14, %18
  %20 = or i32 %10, %19
  ret i32 %20
}

; Function Attrs: inlinehint nounwind uwtable
define internal i32 @get_bits(ptr noundef %0, i32 noundef %1) #4 {
  %3 = alloca ptr, align 8
  %4 = alloca i32, align 4
  %5 = alloca i32, align 4
  %6 = alloca i32, align 4
  %7 = alloca i32, align 4
  %8 = alloca i32, align 4
  store ptr %0, ptr %3, align 8, !tbaa !54
  store i32 %1, ptr %4, align 4, !tbaa !13
  call void @llvm.lifetime.start.p0(i64 4, ptr %5) #12
  call void @llvm.lifetime.start.p0(i64 4, ptr %6) #12
  %9 = load ptr, ptr %3, align 8, !tbaa !54
  %10 = getelementptr inbounds nuw %struct.GetBitContext, ptr %9, i32 0, i32 2
  %11 = load i32, ptr %10, align 8, !tbaa !103
  store i32 %11, ptr %6, align 4, !tbaa !13
  call void @llvm.lifetime.start.p0(i64 4, ptr %7) #12
  call void @llvm.lifetime.start.p0(i64 4, ptr %8) #12
  %12 = load ptr, ptr %3, align 8, !tbaa !54
  %13 = getelementptr inbounds nuw %struct.GetBitContext, ptr %12, i32 0, i32 4
  %14 = load i32, ptr %13, align 8, !tbaa !105
  store i32 %14, ptr %8, align 4, !tbaa !13
  %15 = load ptr, ptr %3, align 8, !tbaa !54
  %16 = getelementptr inbounds nuw %struct.GetBitContext, ptr %15, i32 0, i32 0
  %17 = load ptr, ptr %16, align 8, !tbaa !106
  %18 = load i32, ptr %6, align 4, !tbaa !13
  %19 = lshr i32 %18, 3
  %20 = zext i32 %19 to i64
  %21 = getelementptr inbounds nuw i8, ptr %17, i64 %20
  %22 = load i32, ptr %21, align 1, !tbaa !58
  %23 = call i32 @av_bswap32(i32 noundef %22) #13
  %24 = load i32, ptr %6, align 4, !tbaa !13
  %25 = and i32 %24, 7
  %26 = shl i32 %23, %25
  %27 = lshr i32 %26, 0
  store i32 %27, ptr %7, align 4, !tbaa !13
  %28 = load i32, ptr %7, align 4, !tbaa !13
  %29 = load i32, ptr %4, align 4, !tbaa !13
  %30 = sub nsw i32 32, %29
  %31 = lshr i32 %28, %30
  store i32 %31, ptr %5, align 4, !tbaa !13
  %32 = load i32, ptr %8, align 4, !tbaa !13
  %33 = load i32, ptr %6, align 4, !tbaa !13
  %34 = load i32, ptr %4, align 4, !tbaa !13
  %35 = add i32 %33, %34
  %36 = icmp ugt i32 %32, %35
  br i1 %36, label %37, label %41

37:                                               ; preds = %2
  %38 = load i32, ptr %6, align 4, !tbaa !13
  %39 = load i32, ptr %4, align 4, !tbaa !13
  %40 = add i32 %38, %39
  br label %43

41:                                               ; preds = %2
  %42 = load i32, ptr %8, align 4, !tbaa !13
  br label %43

43:                                               ; preds = %41, %37
  %44 = phi i32 [ %40, %37 ], [ %42, %41 ]
  store i32 %44, ptr %6, align 4, !tbaa !13
  %45 = load i32, ptr %6, align 4, !tbaa !13
  %46 = load ptr, ptr %3, align 8, !tbaa !54
  %47 = getelementptr inbounds nuw %struct.GetBitContext, ptr %46, i32 0, i32 2
  store i32 %45, ptr %47, align 8, !tbaa !103
  %48 = load i32, ptr %5, align 4, !tbaa !13
  call void @llvm.lifetime.end.p0(i64 4, ptr %8) #12
  call void @llvm.lifetime.end.p0(i64 4, ptr %7) #12
  call void @llvm.lifetime.end.p0(i64 4, ptr %6) #12
  call void @llvm.lifetime.end.p0(i64 4, ptr %5) #12
  ret i32 %48
}

; Function Attrs: inlinehint nounwind uwtable
define internal i32 @get_escaped_value(ptr noundef %0, i32 noundef %1, i32 noundef %2, i32 noundef %3) #4 {
  %5 = alloca i32, align 4
  %6 = alloca ptr, align 8
  %7 = alloca i32, align 4
  %8 = alloca i32, align 4
  %9 = alloca i32, align 4
  %10 = alloca i32, align 4
  %11 = alloca i32, align 4
  %12 = alloca i32, align 4
  store ptr %0, ptr %6, align 8, !tbaa !54
  store i32 %1, ptr %7, align 4, !tbaa !13
  store i32 %2, ptr %8, align 4, !tbaa !13
  store i32 %3, ptr %9, align 4, !tbaa !13
  call void @llvm.lifetime.start.p0(i64 4, ptr %10) #12
  %13 = load ptr, ptr %6, align 8, !tbaa !54
  %14 = load i32, ptr %7, align 4, !tbaa !13
  %15 = call i32 @get_bits(ptr noundef %13, i32 noundef %14)
  store i32 %15, ptr %10, align 4, !tbaa !13
  call void @llvm.lifetime.start.p0(i64 4, ptr %11) #12
  %16 = load i32, ptr %10, align 4, !tbaa !13
  %17 = load i32, ptr %7, align 4, !tbaa !13
  %18 = shl i32 1, %17
  %19 = sub nsw i32 %18, 1
  %20 = icmp ult i32 %16, %19
  br i1 %20, label %21, label %23

21:                                               ; preds = %4
  %22 = load i32, ptr %10, align 4, !tbaa !13
  store i32 %22, ptr %5, align 4
  store i32 1, ptr %12, align 4
  br label %45

23:                                               ; preds = %4
  %24 = load ptr, ptr %6, align 8, !tbaa !54
  %25 = load i32, ptr %8, align 4, !tbaa !13
  %26 = call i32 @get_bits(ptr noundef %24, i32 noundef %25)
  store i32 %26, ptr %11, align 4, !tbaa !13
  %27 = load i32, ptr %10, align 4, !tbaa !13
  %28 = add i32 %27, %26
  store i32 %28, ptr %10, align 4, !tbaa !13
  %29 = load i32, ptr %9, align 4, !tbaa !13
  %30 = icmp ne i32 %29, 0
  br i1 %30, label %31, label %43

31:                                               ; preds = %23
  %32 = load i32, ptr %11, align 4, !tbaa !13
  %33 = load i32, ptr %8, align 4, !tbaa !13
  %34 = shl i32 1, %33
  %35 = sub nsw i32 %34, 1
  %36 = icmp eq i32 %32, %35
  br i1 %36, label %37, label %43

37:                                               ; preds = %31
  %38 = load ptr, ptr %6, align 8, !tbaa !54
  %39 = load i32, ptr %9, align 4, !tbaa !13
  %40 = call i32 @get_bits(ptr noundef %38, i32 noundef %39)
  %41 = load i32, ptr %10, align 4, !tbaa !13
  %42 = add i32 %41, %40
  store i32 %42, ptr %10, align 4, !tbaa !13
  br label %43

43:                                               ; preds = %37, %31, %23
  %44 = load i32, ptr %10, align 4, !tbaa !13
  store i32 %44, ptr %5, align 4
  store i32 1, ptr %12, align 4
  br label %45

45:                                               ; preds = %43, %21
  call void @llvm.lifetime.end.p0(i64 4, ptr %11) #12
  call void @llvm.lifetime.end.p0(i64 4, ptr %10) #12
  %46 = load i32, ptr %5, align 4
  ret i32 %46
}