; Function Attrs: inlinehint mustprogress nofree norecurse nosync nounwind willreturn memory(read, argmem: readwrite, inaccessiblemem: none) uwtable
define internal fastcc range(i32 0, 196606) i32 @get_escaped_value(ptr noundef captures(none) %0, i32 noundef range(i32 2, 17) %1, i32 noundef range(i32 4, 17) %2, i32 noundef range(i32 0, 17) %3) unnamed_addr #4 {
  %5 = getelementptr inbounds nuw i8, ptr %0, i64 16
  %6 = load i32, ptr %5, align 8, !tbaa !34
  %7 = getelementptr inbounds nuw i8, ptr %0, i64 24
  %8 = load i32, ptr %7, align 8, !tbaa !36
  %9 = load ptr, ptr %0, align 8, !tbaa !37
  %10 = lshr i32 %6, 3
  %11 = zext nneg i32 %10 to i64
  %12 = getelementptr inbounds nuw i8, ptr %9, i64 %11
  %13 = load i32, ptr %12, align 1, !tbaa !38
  %14 = tail call i32 @llvm.bswap.i32(i32 %13)
  %15 = and i32 %6, 7
  %16 = shl i32 %14, %15
  %17 = sub nuw nsw i32 32, %1
  %18 = lshr i32 %16, %17
  %19 = add i32 %6, %1
  %20 = tail call i32 @llvm.umin.i32(i32 %8, i32 %19)
  store i32 %20, ptr %5, align 8, !tbaa !34
  %notmask = shl nsw i32 -1, %1
  %21 = xor i32 %notmask, -1
  %22 = icmp samesign ult i32 %18, %21
  br i1 %22, label %52, label %23

23:                                               ; preds = %4
  %24 = lshr i32 %20, 3
  %25 = zext nneg i32 %24 to i64
  %26 = getelementptr inbounds nuw i8, ptr %9, i64 %25
  %27 = load i32, ptr %26, align 1, !tbaa !38
  %28 = tail call i32 @llvm.bswap.i32(i32 %27)
  %29 = and i32 %20, 7
  %30 = shl i32 %28, %29
  %31 = sub nuw nsw i32 32, %2
  %32 = lshr i32 %30, %31
  %33 = add i32 %20, %2
  %34 = tail call i32 @llvm.umin.i32(i32 %8, i32 %33)
  store i32 %34, ptr %5, align 8, !tbaa !34
  %35 = add nuw nsw i32 %32, %18
  %.not = icmp eq i32 %3, 0
  br i1 %.not, label %52, label %36

36:                                               ; preds = %23
  %notmask18 = shl nsw i32 -1, %2
  %37 = xor i32 %32, %notmask18
  %38 = icmp eq i32 %37, -1
  br i1 %38, label %39, label %52

39:                                               ; preds = %36
  %40 = lshr i32 %34, 3
  %41 = zext nneg i32 %40 to i64
  %42 = getelementptr inbounds nuw i8, ptr %9, i64 %41
  %43 = load i32, ptr %42, align 1, !tbaa !38
  %44 = tail call i32 @llvm.bswap.i32(i32 %43)
  %45 = and i32 %34, 7
  %46 = shl i32 %44, %45
  %47 = sub nuw nsw i32 32, %3
  %48 = lshr i32 %46, %47
  %49 = add i32 %34, %3
  %50 = tail call i32 @llvm.umin.i32(i32 %8, i32 %49)
  store i32 %50, ptr %5, align 8, !tbaa !34
  %51 = add nuw nsw i32 %48, %35
  br label %52

52:                                               ; preds = %23, %36, %39, %4
  %.0 = phi i32 [ %18, %4 ], [ %51, %39 ], [ %35, %36 ], [ %35, %23 ]
  ret i32 %.0
}